; Function Attrs: mustprogress nofree norecurse nosync nounwind willreturn memory(argmem: read) uwtable
define dso_local noundef zeroext i1 @_ZNK4llvm3pdb21NativeTypeFunctionSig24isConstructorVirtualBaseEv(ptr nocapture noundef nonnull readonly align 8 dereferenceable(97) %0) unnamed_addr #5 align 2 {
  %2 = getelementptr inbounds nuw i8, ptr %0, i64 96
  %3 = load i8, ptr %2, align 8
  %4 = trunc i8 %3 to i1
  %5 = getelementptr inbounds i8, ptr %0, i64 39
  %6 = load i8, ptr %5, align 1
  %7 = and i8 %6, 4
  %8 = icmp ne i8 %7, 0
  %.0 = select i1 %4, i1 %8, i1 false
  ret i1 %.0
}